target datalayout = "e-m:e-p270:32:32-p271:32:32-p272:64:64-i64:64-i128:128-f80:128-n8:16:32:64-S128"
target triple = "x86_64-pc-linux-gnu"

; Function Attrs: mustprogress uwtable
define noundef zeroext i1 @_ZN4base19PersistentSampleMap15AddSubtractImplEPNS_19SampleCountIteratorENS_16HistogramSamples8OperatorE(ptr noundef nonnull align 8 dereferenceable(104) %0, ptr noundef %1, i32 noundef %2) unnamed_addr #0 align 2 {
  %4 = alloca i1, align 1
  %5 = alloca ptr, align 8
  %6 = alloca ptr, align 8
  %7 = alloca i32, align 4
  %8 = alloca i32, align 4
  %9 = alloca i32, align 4
  %10 = alloca i32, align 4
  %11 = alloca i32, align 4
  store ptr %0, ptr %5, align 8, !tbaa !3
  store ptr %1, ptr %6, align 8, !tbaa !76
  store i32 %2, ptr %7, align 4, !tbaa !78
  %12 = load ptr, ptr %5, align 8
  call void @llvm.lifetime.start.p0(i64 4, ptr %8) #14
  call void @llvm.lifetime.start.p0(i64 4, ptr %9) #14
  call void @llvm.lifetime.start.p0(i64 4, ptr %10) #14
  br label %13

13:                                               ; preds = %44, %3
  %14 = load ptr, ptr %6, align 8, !tbaa !76
  %15 = load ptr, ptr %14, align 8, !tbaa !14
  %16 = getelementptr inbounds ptr, ptr %15, i64 2
  %17 = load ptr, ptr %16, align 8
  %18 = call noundef zeroext i1 %17(ptr noundef nonnull align 8 dereferenceable(8) %14)
  %19 = xor i1 %18, true
  br i1 %19, label %20, label %49

20:                                               ; preds = %13
  %21 = load ptr, ptr %6, align 8, !tbaa !76
  %22 = load ptr, ptr %21, align 8, !tbaa !14
  %23 = getelementptr inbounds ptr, ptr %22, i64 4
  %24 = load ptr, ptr %23, align 8
  call void %24(ptr noundef nonnull align 8 dereferenceable(8) %21, ptr noundef %8, ptr noundef %9, ptr noundef %10)
  %25 = load i32, ptr %8, align 4, !tbaa !34
  %26 = add nsw i32 %25, 1
  %27 = load i32, ptr %9, align 4, !tbaa !34
  %28 = icmp ne i32 %26, %27
  br i1 %28, label %29, label %30

29:                                               ; preds = %20
  store i1 false, ptr %4, align 1
  store i32 1, ptr %11, align 4
  br label %50

30:                                               ; preds = %20
  %31 = load i32, ptr %7, align 4, !tbaa !78
  %32 = icmp eq i32 %31, 0
  br i1 %32, label %33, label %35

33:                                               ; preds = %30
  %34 = load i32, ptr %10, align 4, !tbaa !34
  br label %38

35:                                               ; preds = %30
  %36 = load i32, ptr %10, align 4, !tbaa !34
  %37 = sub nsw i32 0, %36
  br label %38

38:                                               ; preds = %35, %33
  %39 = phi i32 [ %34, %33 ], [ %37, %35 ]
  %40 = load i32, ptr %8, align 4, !tbaa !34
  %41 = call noundef ptr @_ZN4base19PersistentSampleMap29GetOrCreateSampleCountStorageEi(ptr noundef nonnull align 8 dereferenceable(104) %12, i32 noundef %40)
  %42 = load i32, ptr %41, align 4, !tbaa !34
  %43 = add nsw i32 %42, %39
  store i32 %43, ptr %41, align 4, !tbaa !34
  br label %44

44:                                               ; preds = %38
  %45 = load ptr, ptr %6, align 8, !tbaa !76
  %46 = load ptr, ptr %45, align 8, !tbaa !14
  %47 = getelementptr inbounds ptr, ptr %46, i64 3
  %48 = load ptr, ptr %47, align 8
  call void %48(ptr noundef nonnull align 8 dereferenceable(8) %45)
  br label %13, !llvm.loop !80

49:                                               ; preds = %13
  store i1 true, ptr %4, align 1
  store i32 1, ptr %11, align 4
  br label %50

50:                                               ; preds = %49, %29
  call void @llvm.lifetime.end.p0(i64 4, ptr %10) #14
  call void @llvm.lifetime.end.p0(i64 4, ptr %9) #14
  call void @llvm.lifetime.end.p0(i64 4, ptr %8) #14
  %51 = load i1, ptr %4, align 1
  ret i1 %51
}