; Function Attrs: mustprogress uwtable
define noundef zeroext i1 @_ZN4base19PersistentSampleMap15AddSubtractImplEPNS_19SampleCountIteratorENS_16HistogramSamples8OperatorE(ptr noundef nonnull align 8 dereferenceable(104) %0, ptr noundef %1, i32 noundef %2) unnamed_addr #0 align 2 {
  %4 = alloca i32, align 4
  %5 = alloca i32, align 4
  %6 = alloca i32, align 4
  call void @llvm.lifetime.start.p0(i64 4, ptr nonnull %4) #13
  call void @llvm.lifetime.start.p0(i64 4, ptr nonnull %5) #13
  call void @llvm.lifetime.start.p0(i64 4, ptr nonnull %6) #13
  %7 = load ptr, ptr %1, align 8, !tbaa !3
  %8 = getelementptr inbounds nuw i8, ptr %7, i64 16
  %9 = load ptr, ptr %8, align 8
  %10 = tail call noundef zeroext i1 %9(ptr noundef nonnull align 8 dereferenceable(8) %1)
  br i1 %10, label %._crit_edge, label %.lr.ph

.lr.ph:                                           ; preds = %3
  %11 = icmp eq i32 %2, 0
  %12 = load ptr, ptr %1, align 8, !tbaa !3
  %13 = getelementptr inbounds nuw i8, ptr %12, i64 32
  %14 = load ptr, ptr %13, align 8
  call void %14(ptr noundef nonnull align 8 dereferenceable(8) %1, ptr noundef nonnull %4, ptr noundef nonnull %5, ptr noundef nonnull %6)
  %15 = load i32, ptr %4, align 4, !tbaa !32
  %16 = add nsw i32 %15, 1
  %17 = load i32, ptr %5, align 4, !tbaa !32
  %.not.us11 = icmp eq i32 %16, %17
  br i1 %11, label %.lr.ph.split.us, label %.lr.ph.split

.lr.ph.split.us:                                  ; preds = %.lr.ph
  br i1 %.not.us11, label %.lr.ph12, label %._crit_edge

18:                                               ; preds = %.lr.ph12
  %19 = load ptr, ptr %1, align 8, !tbaa !3
  %20 = getelementptr inbounds nuw i8, ptr %19, i64 32
  %21 = load ptr, ptr %20, align 8
  call void %21(ptr noundef nonnull align 8 dereferenceable(8) %1, ptr noundef nonnull %4, ptr noundef nonnull %5, ptr noundef nonnull %6)
  %22 = load i32, ptr %4, align 4, !tbaa !32
  %23 = add nsw i32 %22, 1
  %24 = load i32, ptr %5, align 4, !tbaa !32
  %.not.us = icmp eq i32 %23, %24
  br i1 %.not.us, label %.lr.ph12, label %._crit_edge, !llvm.loop !76

.lr.ph12:                                         ; preds = %.lr.ph.split.us, %18
  %25 = phi i32 [ %22, %18 ], [ %15, %.lr.ph.split.us ]
  %26 = load i32, ptr %6, align 4
  %27 = call noundef ptr @_ZN4base19PersistentSampleMap29GetOrCreateSampleCountStorageEi(ptr noundef nonnull align 8 dereferenceable(104) %0, i32 noundef %25)
  %28 = load i32, ptr %27, align 4, !tbaa !32
  %29 = add nsw i32 %28, %26
  store i32 %29, ptr %27, align 4, !tbaa !32
  %30 = load ptr, ptr %1, align 8, !tbaa !3
  %31 = getelementptr inbounds nuw i8, ptr %30, i64 24
  %32 = load ptr, ptr %31, align 8
  call void %32(ptr noundef nonnull align 8 dereferenceable(8) %1)
  %33 = load ptr, ptr %1, align 8, !tbaa !3
  %34 = getelementptr inbounds nuw i8, ptr %33, i64 16
  %35 = load ptr, ptr %34, align 8
  %36 = call noundef zeroext i1 %35(ptr noundef nonnull align 8 dereferenceable(8) %1)
  br i1 %36, label %._crit_edge, label %18, !llvm.loop !76

.lr.ph.split:                                     ; preds = %.lr.ph
  br i1 %.not.us11, label %.lr.ph9, label %._crit_edge

37:                                               ; preds = %.lr.ph9
  %38 = load ptr, ptr %1, align 8, !tbaa !3
  %39 = getelementptr inbounds nuw i8, ptr %38, i64 32
  %40 = load ptr, ptr %39, align 8
  call void %40(ptr noundef nonnull align 8 dereferenceable(8) %1, ptr noundef nonnull %4, ptr noundef nonnull %5, ptr noundef nonnull %6)
  %41 = load i32, ptr %4, align 4, !tbaa !32
  %42 = add nsw i32 %41, 1
  %43 = load i32, ptr %5, align 4, !tbaa !32
  %.not = icmp eq i32 %42, %43
  br i1 %.not, label %.lr.ph9, label %._crit_edge, !llvm.loop !76

.lr.ph9:                                          ; preds = %.lr.ph.split, %37
  %44 = phi i32 [ %41, %37 ], [ %15, %.lr.ph.split ]
  %45 = load i32, ptr %6, align 4
  %46 = call noundef ptr @_ZN4base19PersistentSampleMap29GetOrCreateSampleCountStorageEi(ptr noundef nonnull align 8 dereferenceable(104) %0, i32 noundef %44)
  %47 = load i32, ptr %46, align 4, !tbaa !32
  %48 = sub nsw i32 %47, %45
  store i32 %48, ptr %46, align 4, !tbaa !32
  %49 = load ptr, ptr %1, align 8, !tbaa !3
  %50 = getelementptr inbounds nuw i8, ptr %49, i64 24
  %51 = load ptr, ptr %50, align 8
  call void %51(ptr noundef nonnull align 8 dereferenceable(8) %1)
  %52 = load ptr, ptr %1, align 8, !tbaa !3
  %53 = getelementptr inbounds nuw i8, ptr %52, i64 16
  %54 = load ptr, ptr %53, align 8
  %55 = call noundef zeroext i1 %54(ptr noundef nonnull align 8 dereferenceable(8) %1)
  br i1 %55, label %._crit_edge, label %37, !llvm.loop !76

._crit_edge:                                      ; preds = %37, %.lr.ph9, %18, %.lr.ph12, %.lr.ph.split.us, %.lr.ph.split, %3
  %.lcssa = phi i1 [ true, %3 ], [ false, %.lr.ph.split.us ], [ false, %.lr.ph.split ], [ %36, %.lr.ph12 ], [ %36, %18 ], [ %55, %.lr.ph9 ], [ %55, %37 ]
  call void @llvm.lifetime.end.p0(i64 4, ptr nonnull %6) #13
  call void @llvm.lifetime.end.p0(i64 4, ptr nonnull %5) #13
  call void @llvm.lifetime.end.p0(i64 4, ptr nonnull %4) #13
  ret i1 %.lcssa
}